; Function Attrs: mustprogress uwtable
define hidden noundef range(i32 0, -1) i32 @_ZN3sls7context10mk_literalEv(ptr noundef nonnull readonly align 8 captures(none) dereferenceable(321) %0) local_unnamed_addr #4 align 2 {
  %2 = getelementptr inbounds nuw i8, ptr %0, i64 8
  %3 = load ptr, ptr %2, align 8, !tbaa !148
  %4 = load ptr, ptr %3, align 8, !tbaa !3
  %5 = getelementptr inbounds nuw i8, ptr %4, i64 136
  %6 = load ptr, ptr %5, align 8
  %7 = tail call noundef i32 %6(ptr noundef nonnull align 8 dereferenceable(8) %3)
  %8 = shl i32 %7, 1
  ret i32 %8
}